; Function Attrs: mustprogress uwtable
define void @_ZN6icu_777Package12extractItemsEPKcRKS0_c(ptr noundef nonnull align 8 captures(none) dereferenceable(201237) %0, ptr noundef %1, ptr noundef nonnull readonly align 8 captures(none) dereferenceable(201237) %2, i8 noundef signext %3) local_unnamed_addr #13 align 2 {
  %5 = getelementptr inbounds nuw i8, ptr %2, i64 1172
  %6 = load i32, ptr %5, align 4, !tbaa !29
  %7 = icmp sgt i32 %6, 0
  br i1 %7, label %.lr.ph, label %._crit_edge

.lr.ph:                                           ; preds = %4
  %8 = getelementptr inbounds nuw i8, ptr %2, i64 1184
  %9 = load ptr, ptr %8, align 8, !tbaa !30
  %10 = getelementptr inbounds nuw i8, ptr %0, i64 1184
  br label %11

11:                                               ; preds = %.lr.ph, %_ZN6icu_777Package12extractItemsEPKcS2_c.exit
  %.010 = phi i32 [ 0, %.lr.ph ], [ %23, %_ZN6icu_777Package12extractItemsEPKcS2_c.exit ]
  %.089 = phi ptr [ %9, %.lr.ph ], [ %22, %_ZN6icu_777Package12extractItemsEPKcS2_c.exit ]
  %12 = load ptr, ptr %.089, align 8, !tbaa !54
  tail call void @_ZN6icu_777Package9findItemsEPKc(ptr noundef nonnull align 8 dereferenceable(201237) %0, ptr noundef %12)
  %13 = tail call noundef i32 @_ZN6icu_777Package12findNextItemEv(ptr noundef nonnull align 8 dereferenceable(201237) %0)
  %14 = icmp sgt i32 %13, -1
  br i1 %14, label %.lr.ph.i, label %_ZN6icu_777Package12extractItemsEPKcS2_c.exit

.lr.ph.i:                                         ; preds = %11, %.lr.ph.i
  %15 = phi i32 [ %20, %.lr.ph.i ], [ %13, %11 ]
  %16 = load ptr, ptr %10, align 8, !tbaa !30
  %17 = zext nneg i32 %15 to i64
  %18 = getelementptr inbounds nuw %"struct.icu_77::Item", ptr %16, i64 %17
  %19 = load ptr, ptr %18, align 8, !tbaa !54
  tail call void @_ZN6icu_777Package11extractItemEPKcS2_ic(ptr noundef nonnull readonly align 8 dereferenceable(201237) %0, ptr noundef %1, ptr noundef %19, i32 noundef %15, i8 noundef signext %3)
  %20 = tail call noundef i32 @_ZN6icu_777Package12findNextItemEv(ptr noundef nonnull align 8 dereferenceable(201237) %0)
  %21 = icmp sgt i32 %20, -1
  br i1 %21, label %.lr.ph.i, label %_ZN6icu_777Package12extractItemsEPKcS2_c.exit, !llvm.loop !78

_ZN6icu_777Package12extractItemsEPKcS2_c.exit:    ; preds = %.lr.ph.i, %11
  %22 = getelementptr inbounds nuw i8, ptr %.089, i64 24
  %23 = add nuw nsw i32 %.010, 1
  %24 = load i32, ptr %5, align 4, !tbaa !29
  %25 = icmp slt i32 %23, %24
  br i1 %25, label %11, label %._crit_edge, !llvm.loop !79

._crit_edge:                                      ; preds = %_ZN6icu_777Package12extractItemsEPKcS2_c.exit, %4
  ret void
}